; Function Attrs: mustprogress nofree nounwind willreturn memory(read, inaccessiblemem: none) uwtable
define dso_local noundef zeroext i1 @_ZNK4Luau26CannotInferBinaryOperationeqERKS0_(ptr noundef nonnull readonly align 8 captures(none) dereferenceable(52) %0, ptr noundef nonnull readonly align 8 captures(none) dereferenceable(52) %1) local_unnamed_addr #7 align 2 {
  %3 = load i32, ptr %0, align 8, !tbaa !164
  %4 = load i32, ptr %1, align 8, !tbaa !164
  %5 = icmp eq i32 %3, %4
  br i1 %5, label %6, label %_ZSteqINSt7__cxx1112basic_stringIcSt11char_traitsIcESaIcEEES5_ENSt9enable_ifIXsr14is_convertibleIDTeqclsr3stdE7declvalIRKT_EEclsr3stdE7declvalIRKT0_EEEbEE5valueEbE4typeERKSt8optionalIS7_ERKSG_ISA_E.exit.thread4

6:                                                ; preds = %2
  %7 = getelementptr inbounds nuw i8, ptr %0, i64 8
  %8 = getelementptr inbounds nuw i8, ptr %1, i64 8
  %9 = getelementptr inbounds nuw i8, ptr %0, i64 40
  %10 = load i8, ptr %9, align 8, !tbaa !173, !range !50, !noundef !51
  %11 = trunc nuw i8 %10 to i1
  %12 = getelementptr inbounds nuw i8, ptr %1, i64 40
  %13 = load i8, ptr %12, align 8, !tbaa !173, !range !50, !noundef !51
  %14 = icmp eq i8 %10, %13
  %brmerge.not.i = and i1 %14, %11
  br i1 %brmerge.not.i, label %15, label %_ZSteqINSt7__cxx1112basic_stringIcSt11char_traitsIcESaIcEEES5_ENSt9enable_ifIXsr14is_convertibleIDTeqclsr3stdE7declvalIRKT_EEclsr3stdE7declvalIRKT0_EEEbEE5valueEbE4typeERKSt8optionalIS7_ERKSG_ISA_E.exit

15:                                               ; preds = %6
  %16 = getelementptr inbounds nuw i8, ptr %0, i64 16
  %17 = load i64, ptr %16, align 8, !tbaa !23
  %18 = getelementptr inbounds nuw i8, ptr %1, i64 16
  %19 = load i64, ptr %18, align 8, !tbaa !23
  %20 = icmp eq i64 %17, %19
  br i1 %20, label %21, label %_ZSteqINSt7__cxx1112basic_stringIcSt11char_traitsIcESaIcEEES5_ENSt9enable_ifIXsr14is_convertibleIDTeqclsr3stdE7declvalIRKT_EEclsr3stdE7declvalIRKT0_EEEbEE5valueEbE4typeERKSt8optionalIS7_ERKSG_ISA_E.exit.thread4

21:                                               ; preds = %15
  %22 = icmp eq i64 %17, 0
  br i1 %22, label %_ZSteqINSt7__cxx1112basic_stringIcSt11char_traitsIcESaIcEEES5_ENSt9enable_ifIXsr14is_convertibleIDTeqclsr3stdE7declvalIRKT_EEclsr3stdE7declvalIRKT0_EEEbEE5valueEbE4typeERKSt8optionalIS7_ERKSG_ISA_E.exit.thread, label %23

23:                                               ; preds = %21
  %24 = load ptr, ptr %8, align 8, !tbaa !19
  %25 = load ptr, ptr %7, align 8, !tbaa !19
  %bcmp.i.i = tail call i32 @bcmp(ptr %25, ptr %24, i64 %17)
  %26 = icmp eq i32 %bcmp.i.i, 0
  br i1 %26, label %_ZSteqINSt7__cxx1112basic_stringIcSt11char_traitsIcESaIcEEES5_ENSt9enable_ifIXsr14is_convertibleIDTeqclsr3stdE7declvalIRKT_EEclsr3stdE7declvalIRKT0_EEEbEE5valueEbE4typeERKSt8optionalIS7_ERKSG_ISA_E.exit.thread, label %_ZSteqINSt7__cxx1112basic_stringIcSt11char_traitsIcESaIcEEES5_ENSt9enable_ifIXsr14is_convertibleIDTeqclsr3stdE7declvalIRKT_EEclsr3stdE7declvalIRKT0_EEEbEE5valueEbE4typeERKSt8optionalIS7_ERKSG_ISA_E.exit.thread4

_ZSteqINSt7__cxx1112basic_stringIcSt11char_traitsIcESaIcEEES5_ENSt9enable_ifIXsr14is_convertibleIDTeqclsr3stdE7declvalIRKT_EEclsr3stdE7declvalIRKT0_EEEbEE5valueEbE4typeERKSt8optionalIS7_ERKSG_ISA_E.exit: ; preds = %6
  br i1 %14, label %_ZSteqINSt7__cxx1112basic_stringIcSt11char_traitsIcESaIcEEES5_ENSt9enable_ifIXsr14is_convertibleIDTeqclsr3stdE7declvalIRKT_EEclsr3stdE7declvalIRKT0_EEEbEE5valueEbE4typeERKSt8optionalIS7_ERKSG_ISA_E.exit.thread, label %_ZSteqINSt7__cxx1112basic_stringIcSt11char_traitsIcESaIcEEES5_ENSt9enable_ifIXsr14is_convertibleIDTeqclsr3stdE7declvalIRKT_EEclsr3stdE7declvalIRKT0_EEEbEE5valueEbE4typeERKSt8optionalIS7_ERKSG_ISA_E.exit.thread4

_ZSteqINSt7__cxx1112basic_stringIcSt11char_traitsIcESaIcEEES5_ENSt9enable_ifIXsr14is_convertibleIDTeqclsr3stdE7declvalIRKT_EEclsr3stdE7declvalIRKT0_EEEbEE5valueEbE4typeERKSt8optionalIS7_ERKSG_ISA_E.exit.thread: ; preds = %21, %23, %_ZSteqINSt7__cxx1112basic_stringIcSt11char_traitsIcESaIcEEES5_ENSt9enable_ifIXsr14is_convertibleIDTeqclsr3stdE7declvalIRKT_EEclsr3stdE7declvalIRKT0_EEEbEE5valueEbE4typeERKSt8optionalIS7_ERKSG_ISA_E.exit
  %27 = getelementptr inbounds nuw i8, ptr %0, i64 48
  %28 = load i32, ptr %27, align 8, !tbaa !174
  %29 = getelementptr inbounds nuw i8, ptr %1, i64 48
  %30 = load i32, ptr %29, align 8, !tbaa !174
  %31 = icmp eq i32 %28, %30
  br label %_ZSteqINSt7__cxx1112basic_stringIcSt11char_traitsIcESaIcEEES5_ENSt9enable_ifIXsr14is_convertibleIDTeqclsr3stdE7declvalIRKT_EEclsr3stdE7declvalIRKT0_EEEbEE5valueEbE4typeERKSt8optionalIS7_ERKSG_ISA_E.exit.thread4

_ZSteqINSt7__cxx1112basic_stringIcSt11char_traitsIcESaIcEEES5_ENSt9enable_ifIXsr14is_convertibleIDTeqclsr3stdE7declvalIRKT_EEclsr3stdE7declvalIRKT0_EEEbEE5valueEbE4typeERKSt8optionalIS7_ERKSG_ISA_E.exit.thread4: ; preds = %15, %23, %_ZSteqINSt7__cxx1112basic_stringIcSt11char_traitsIcESaIcEEES5_ENSt9enable_ifIXsr14is_convertibleIDTeqclsr3stdE7declvalIRKT_EEclsr3stdE7declvalIRKT0_EEEbEE5valueEbE4typeERKSt8optionalIS7_ERKSG_ISA_E.exit.thread, %_ZSteqINSt7__cxx1112basic_stringIcSt11char_traitsIcESaIcEEES5_ENSt9enable_ifIXsr14is_convertibleIDTeqclsr3stdE7declvalIRKT_EEclsr3stdE7declvalIRKT0_EEEbEE5valueEbE4typeERKSt8optionalIS7_ERKSG_ISA_E.exit, %2
  %32 = phi i1 [ false, %_ZSteqINSt7__cxx1112basic_stringIcSt11char_traitsIcESaIcEEES5_ENSt9enable_ifIXsr14is_convertibleIDTeqclsr3stdE7declvalIRKT_EEclsr3stdE7declvalIRKT0_EEEbEE5valueEbE4typeERKSt8optionalIS7_ERKSG_ISA_E.exit ], [ false, %2 ], [ %31, %_ZSteqINSt7__cxx1112basic_stringIcSt11char_traitsIcESaIcEEES5_ENSt9enable_ifIXsr14is_convertibleIDTeqclsr3stdE7declvalIRKT_EEclsr3stdE7declvalIRKT0_EEEbEE5valueEbE4typeERKSt8optionalIS7_ERKSG_ISA_E.exit.thread ], [ false, %23 ], [ false, %15 ]
  ret i1 %32
}